target datalayout = "e-m:e-p270:32:32-p271:32:32-p272:64:64-i64:64-i128:128-f80:128-n8:16:32:64-S128"
target triple = "x86_64-pc-linux-gnu"

%struct.AVPacket = type { ptr, i64, i64, ptr, i32, i32, i32, ptr, i32, i64, i64, ptr, ptr, %struct.AVRational }
%struct.AVRational = type { i32, i32 }
%struct.AVStream = type { ptr, i32, i32, ptr, ptr, %struct.AVRational, i64, i64, i64, i32, i32, %struct.AVRational, ptr, %struct.AVRational, %struct.AVPacket, i32, %struct.AVRational, i32 }
%struct.MOVMuxContext = type { ptr, i32, i64, i32, i32, i32, i32, i64, i64, ptr, i32, i32, i32, i32, i32, i32, i32, i32, i32, i32, i32, ptr, i32, i32, i32, i64, ptr, i32, ptr, ptr, i32, float, i32, i32, ptr, i32, ptr, i32, ptr, i32, i32, i32, i32, i32, i32, i32, i32, i32, [2 x i64], [2 x i32], i32, i32 }
%struct.MOVTrack = type { i32, i32, i32, i32, i64, i64, i32, i64, i64, i64, i32, i32, i32, i32, i32, i32, i32, ptr, ptr, i32, i32, i32, ptr, ptr, ptr, i32, i32, i32, i32, i32, i64, i64, i64, i32, i64, i32, i32, ptr, i32, i64, i32, i64, i32, i32, %struct.HintSampleQueue, ptr, ptr, i64, i32, i32, i32, ptr, i32, %struct.anon, ptr, %struct.MOVMuxCencContext, [256 x i32], i32, i32, i32, %struct.PacketList, ptr, i32, i32, ptr }
%struct.HintSampleQueue = type { i32, i32, ptr }
%struct.anon = type { i32, i32, i32, i32, i32, i32, i32 }
%struct.MOVMuxCencContext = type { ptr, ptr, i64, i64, i32, i32, i16, i64, ptr, i64, ptr, i32, i32, ptr, %struct.CodedBitstreamFragment }
%struct.CodedBitstreamFragment = type { ptr, i64, i64, ptr, i32, i32, ptr }
%struct.PacketList = type { ptr, ptr }

; Function Attrs: nounwind uwtable
define internal i32 @mov_setup_track_ids(ptr noundef %0, ptr noundef %1) #0 {
  %3 = alloca i32, align 4
  %4 = alloca ptr, align 8
  %5 = alloca ptr, align 8
  %6 = alloca i32, align 4
  %7 = alloca i32, align 4
  %8 = alloca i32, align 4
  %9 = alloca ptr, align 8
  %10 = alloca i32, align 4
  store ptr %0, ptr %4, align 8, !tbaa !28
  store ptr %1, ptr %5, align 8, !tbaa !4
  call void @llvm.lifetime.start.p0(i64 4, ptr %6) #14
  %11 = load ptr, ptr %4, align 8, !tbaa !28
  %12 = getelementptr inbounds nuw %struct.MOVMuxContext, ptr %11, i32 0, i32 42
  %13 = load i32, ptr %12, align 4, !tbaa !350
  %14 = icmp ne i32 %13, 0
  br i1 %14, label %15, label %16

15:                                               ; preds = %2
  store i32 0, ptr %3, align 4
  store i32 1, ptr %7, align 4
  br label %196

16:                                               ; preds = %2
  %17 = load ptr, ptr %4, align 8, !tbaa !28
  %18 = getelementptr inbounds nuw %struct.MOVMuxContext, ptr %17, i32 0, i32 41
  %19 = load i32, ptr %18, align 8, !tbaa !351
  %20 = icmp ne i32 %19, 0
  br i1 %20, label %21, label %107

21:                                               ; preds = %16
  call void @llvm.lifetime.start.p0(i64 4, ptr %8) #14
  store i32 0, ptr %8, align 4, !tbaa !32
  store i32 0, ptr %6, align 4, !tbaa !32
  br label %22

22:                                               ; preds = %47, %21
  %23 = load i32, ptr %6, align 4, !tbaa !32
  %24 = load ptr, ptr %4, align 8, !tbaa !28
  %25 = getelementptr inbounds nuw %struct.MOVMuxContext, ptr %24, i32 0, i32 3
  %26 = load i32, ptr %25, align 8, !tbaa !186
  %27 = icmp slt i32 %23, %26
  br i1 %27, label %28, label %50

28:                                               ; preds = %22
  call void @llvm.lifetime.start.p0(i64 8, ptr %9) #14
  %29 = load ptr, ptr %4, align 8, !tbaa !28
  %30 = getelementptr inbounds nuw %struct.MOVMuxContext, ptr %29, i32 0, i32 9
  %31 = load ptr, ptr %30, align 8, !tbaa !49
  %32 = load i32, ptr %6, align 4, !tbaa !32
  %33 = sext i32 %32 to i64
  %34 = getelementptr inbounds %struct.MOVTrack, ptr %31, i64 %33
  %35 = getelementptr inbounds nuw %struct.MOVTrack, ptr %34, i32 0, i32 17
  %36 = load ptr, ptr %35, align 8, !tbaa !96
  store ptr %36, ptr %9, align 8, !tbaa !42
  %37 = load ptr, ptr %9, align 8, !tbaa !42
  %38 = getelementptr inbounds nuw %struct.AVStream, ptr %37, i32 0, i32 2
  %39 = load i32, ptr %38, align 4, !tbaa !352
  %40 = load i32, ptr %8, align 4, !tbaa !32
  %41 = icmp sgt i32 %39, %40
  br i1 %41, label %42, label %46

42:                                               ; preds = %28
  %43 = load ptr, ptr %9, align 8, !tbaa !42
  %44 = getelementptr inbounds nuw %struct.AVStream, ptr %43, i32 0, i32 2
  %45 = load i32, ptr %44, align 4, !tbaa !352
  store i32 %45, ptr %8, align 4, !tbaa !32
  br label %46

46:                                               ; preds = %42, %28
  call void @llvm.lifetime.end.p0(i64 8, ptr %9) #14
  br label %47

47:                                               ; preds = %46
  %48 = load i32, ptr %6, align 4, !tbaa !32
  %49 = add nsw i32 %48, 1
  store i32 %49, ptr %6, align 4, !tbaa !32
  br label %22, !llvm.loop !353

50:                                               ; preds = %22
  store i32 0, ptr %6, align 4, !tbaa !32
  br label %51

51:                                               ; preds = %103, %50
  %52 = load i32, ptr %6, align 4, !tbaa !32
  %53 = load ptr, ptr %4, align 8, !tbaa !28
  %54 = getelementptr inbounds nuw %struct.MOVMuxContext, ptr %53, i32 0, i32 4
  %55 = load i32, ptr %54, align 4, !tbaa !99
  %56 = icmp slt i32 %52, %55
  br i1 %56, label %57, label %106

57:                                               ; preds = %51
  %58 = load ptr, ptr %4, align 8, !tbaa !28
  %59 = getelementptr inbounds nuw %struct.MOVMuxContext, ptr %58, i32 0, i32 9
  %60 = load ptr, ptr %59, align 8, !tbaa !49
  %61 = load i32, ptr %6, align 4, !tbaa !32
  %62 = sext i32 %61 to i64
  %63 = getelementptr inbounds %struct.MOVTrack, ptr %60, i64 %62
  %64 = getelementptr inbounds nuw %struct.MOVTrack, ptr %63, i32 0, i32 1
  %65 = load i32, ptr %64, align 4, !tbaa !77
  %66 = icmp sle i32 %65, 0
  br i1 %66, label %67, label %74

67:                                               ; preds = %57
  %68 = load ptr, ptr %4, align 8, !tbaa !28
  %69 = getelementptr inbounds nuw %struct.MOVMuxContext, ptr %68, i32 0, i32 10
  %70 = load i32, ptr %69, align 8, !tbaa !72
  %71 = and i32 %70, 2
  %72 = icmp ne i32 %71, 0
  br i1 %72, label %74, label %73

73:                                               ; preds = %67
  br label %103

74:                                               ; preds = %67, %57
  %75 = load i32, ptr %6, align 4, !tbaa !32
  %76 = load ptr, ptr %4, align 8, !tbaa !28
  %77 = getelementptr inbounds nuw %struct.MOVMuxContext, ptr %76, i32 0, i32 3
  %78 = load i32, ptr %77, align 8, !tbaa !186
  %79 = icmp sge i32 %75, %78
  br i1 %79, label %80, label %83

80:                                               ; preds = %74
  %81 = load i32, ptr %8, align 4, !tbaa !32
  %82 = add nsw i32 %81, 1
  store i32 %82, ptr %8, align 4, !tbaa !32
  br label %94

83:                                               ; preds = %74
  %84 = load ptr, ptr %4, align 8, !tbaa !28
  %85 = getelementptr inbounds nuw %struct.MOVMuxContext, ptr %84, i32 0, i32 9
  %86 = load ptr, ptr %85, align 8, !tbaa !49
  %87 = load i32, ptr %6, align 4, !tbaa !32
  %88 = sext i32 %87 to i64
  %89 = getelementptr inbounds %struct.MOVTrack, ptr %86, i64 %88
  %90 = getelementptr inbounds nuw %struct.MOVTrack, ptr %89, i32 0, i32 17
  %91 = load ptr, ptr %90, align 8, !tbaa !96
  %92 = getelementptr inbounds nuw %struct.AVStream, ptr %91, i32 0, i32 2
  %93 = load i32, ptr %92, align 4, !tbaa !352
  br label %94

94:                                               ; preds = %83, %80
  %95 = phi i32 [ %82, %80 ], [ %93, %83 ]
  %96 = load ptr, ptr %4, align 8, !tbaa !28
  %97 = getelementptr inbounds nuw %struct.MOVMuxContext, ptr %96, i32 0, i32 9
  %98 = load ptr, ptr %97, align 8, !tbaa !49
  %99 = load i32, ptr %6, align 4, !tbaa !32
  %100 = sext i32 %99 to i64
  %101 = getelementptr inbounds %struct.MOVTrack, ptr %98, i64 %100
  %102 = getelementptr inbounds nuw %struct.MOVTrack, ptr %101, i32 0, i32 15
  store i32 %95, ptr %102, align 4, !tbaa !321
  br label %103

103:                                              ; preds = %94, %73
  %104 = load i32, ptr %6, align 4, !tbaa !32
  %105 = add nsw i32 %104, 1
  store i32 %105, ptr %6, align 4, !tbaa !32
  br label %51, !llvm.loop !354

106:                                              ; preds = %51
  call void @llvm.lifetime.end.p0(i64 4, ptr %8) #14
  br label %193

107:                                              ; preds = %16
  call void @llvm.lifetime.start.p0(i64 4, ptr %10) #14
  store i32 0, ptr %10, align 4, !tbaa !32
  store i32 0, ptr %6, align 4, !tbaa !32
  br label %108

108:                                              ; preds = %189, %107
  %109 = load i32, ptr %6, align 4, !tbaa !32
  %110 = load ptr, ptr %4, align 8, !tbaa !28
  %111 = getelementptr inbounds nuw %struct.MOVMuxContext, ptr %110, i32 0, i32 4
  %112 = load i32, ptr %111, align 4, !tbaa !99
  %113 = icmp slt i32 %109, %112
  br i1 %113, label %114, label %192

114:                                              ; preds = %108
  %115 = load ptr, ptr %4, align 8, !tbaa !28
  %116 = getelementptr inbounds nuw %struct.MOVMuxContext, ptr %115, i32 0, i32 9
  %117 = load ptr, ptr %116, align 8, !tbaa !49
  %118 = load i32, ptr %6, align 4, !tbaa !32
  %119 = sext i32 %118 to i64
  %120 = getelementptr inbounds %struct.MOVTrack, ptr %117, i64 %119
  %121 = getelementptr inbounds nuw %struct.MOVTrack, ptr %120, i32 0, i32 1
  %122 = load i32, ptr %121, align 4, !tbaa !77
  %123 = icmp sle i32 %122, 0
  br i1 %123, label %124, label %131

124:                                              ; preds = %114
  %125 = load ptr, ptr %4, align 8, !tbaa !28
  %126 = getelementptr inbounds nuw %struct.MOVMuxContext, ptr %125, i32 0, i32 10
  %127 = load i32, ptr %126, align 8, !tbaa !72
  %128 = and i32 %127, 2
  %129 = icmp ne i32 %128, 0
  br i1 %129, label %131, label %130

130:                                              ; preds = %124
  br label %189

131:                                              ; preds = %124, %114
  %132 = load ptr, ptr %4, align 8, !tbaa !28
  %133 = getelementptr inbounds nuw %struct.MOVMuxContext, ptr %132, i32 0, i32 9
  %134 = load ptr, ptr %133, align 8, !tbaa !49
  %135 = load i32, ptr %6, align 4, !tbaa !32
  %136 = sext i32 %135 to i64
  %137 = getelementptr inbounds %struct.MOVTrack, ptr %134, i64 %136
  %138 = getelementptr inbounds nuw %struct.MOVTrack, ptr %137, i32 0, i32 17
  %139 = load ptr, ptr %138, align 8, !tbaa !96
  %140 = icmp ne ptr %139, null
  br i1 %140, label %141, label %169

141:                                              ; preds = %131
  %142 = load ptr, ptr %4, align 8, !tbaa !28
  %143 = getelementptr inbounds nuw %struct.MOVMuxContext, ptr %142, i32 0, i32 9
  %144 = load ptr, ptr %143, align 8, !tbaa !49
  %145 = load i32, ptr %6, align 4, !tbaa !32
  %146 = sext i32 %145 to i64
  %147 = getelementptr inbounds %struct.MOVTrack, ptr %144, i64 %146
  %148 = getelementptr inbounds nuw %struct.MOVTrack, ptr %147, i32 0, i32 17
  %149 = load ptr, ptr %148, align 8, !tbaa !96
  %150 = getelementptr inbounds nuw %struct.AVStream, ptr %149, i32 0, i32 1
  %151 = load i32, ptr %150, align 8, !tbaa !217
  %152 = load i32, ptr %10, align 4, !tbaa !32
  %153 = icmp sgt i32 %151, %152
  br i1 %153, label %154, label %165

154:                                              ; preds = %141
  %155 = load ptr, ptr %4, align 8, !tbaa !28
  %156 = getelementptr inbounds nuw %struct.MOVMuxContext, ptr %155, i32 0, i32 9
  %157 = load ptr, ptr %156, align 8, !tbaa !49
  %158 = load i32, ptr %6, align 4, !tbaa !32
  %159 = sext i32 %158 to i64
  %160 = getelementptr inbounds %struct.MOVTrack, ptr %157, i64 %159
  %161 = getelementptr inbounds nuw %struct.MOVTrack, ptr %160, i32 0, i32 17
  %162 = load ptr, ptr %161, align 8, !tbaa !96
  %163 = getelementptr inbounds nuw %struct.AVStream, ptr %162, i32 0, i32 1
  %164 = load i32, ptr %163, align 8, !tbaa !217
  br label %167

165:                                              ; preds = %141
  %166 = load i32, ptr %10, align 4, !tbaa !32
  br label %167

167:                                              ; preds = %165, %154
  %168 = phi i32 [ %164, %154 ], [ %166, %165 ]
  br label %179

169:                                              ; preds = %131
  %170 = load i32, ptr %6, align 4, !tbaa !32
  %171 = load i32, ptr %10, align 4, !tbaa !32
  %172 = icmp sgt i32 %170, %171
  br i1 %172, label %173, label %175

173:                                              ; preds = %169
  %174 = load i32, ptr %6, align 4, !tbaa !32
  br label %177

175:                                              ; preds = %169
  %176 = load i32, ptr %10, align 4, !tbaa !32
  br label %177

177:                                              ; preds = %175, %173
  %178 = phi i32 [ %174, %173 ], [ %176, %175 ]
  br label %179

179:                                              ; preds = %177, %167
  %180 = phi i32 [ %168, %167 ], [ %178, %177 ]
  %181 = add nsw i32 %180, 1
  %182 = load ptr, ptr %4, align 8, !tbaa !28
  %183 = getelementptr inbounds nuw %struct.MOVMuxContext, ptr %182, i32 0, i32 9
  %184 = load ptr, ptr %183, align 8, !tbaa !49
  %185 = load i32, ptr %6, align 4, !tbaa !32
  %186 = sext i32 %185 to i64
  %187 = getelementptr inbounds %struct.MOVTrack, ptr %184, i64 %186
  %188 = getelementptr inbounds nuw %struct.MOVTrack, ptr %187, i32 0, i32 15
  store i32 %181, ptr %188, align 4, !tbaa !321
  store i32 %181, ptr %10, align 4, !tbaa !32
  br label %189

189:                                              ; preds = %179, %130
  %190 = load i32, ptr %6, align 4, !tbaa !32
  %191 = add nsw i32 %190, 1
  store i32 %191, ptr %6, align 4, !tbaa !32
  br label %108, !llvm.loop !355

192:                                              ; preds = %108
  call void @llvm.lifetime.end.p0(i64 4, ptr %10) #14
  br label %193

193:                                              ; preds = %192, %106
  %194 = load ptr, ptr %4, align 8, !tbaa !28
  %195 = getelementptr inbounds nuw %struct.MOVMuxContext, ptr %194, i32 0, i32 42
  store i32 1, ptr %195, align 4, !tbaa !350
  store i32 0, ptr %3, align 4
  store i32 1, ptr %7, align 4
  br label %196

196:                                              ; preds = %193, %15
  call void @llvm.lifetime.end.p0(i64 4, ptr %6) #14
  %197 = load i32, ptr %3, align 4
  ret i32 %197
}