; Function Attrs: nofree norecurse nosync nounwind memory(readwrite, inaccessiblemem: none) uwtable
define internal fastcc void @mov_setup_track_ids(ptr noundef captures(none) %0) unnamed_addr #10 {
  %2 = getelementptr inbounds nuw i8, ptr %0, i64 244
  %3 = load i32, ptr %2, align 4, !tbaa !376
  %.not = icmp eq i32 %3, 0
  br i1 %.not, label %4, label %68

4:                                                ; preds = %1
  %5 = getelementptr inbounds nuw i8, ptr %0, i64 240
  %6 = load i32, ptr %5, align 8, !tbaa !377
  %.not53 = icmp eq i32 %6, 0
  br i1 %.not53, label %.preheader, label %.preheader3

.preheader3:                                      ; preds = %4
  %7 = getelementptr inbounds nuw i8, ptr %0, i64 24
  %8 = load i32, ptr %7, align 8, !tbaa !172
  %9 = icmp sgt i32 %8, 0
  br i1 %9, label %.lr.ph, label %.preheader1

.lr.ph:                                           ; preds = %.preheader3
  %10 = getelementptr inbounds nuw i8, ptr %0, i64 56
  %11 = load ptr, ptr %10, align 8, !tbaa !40
  %wide.trip.count = zext nneg i32 %8 to i64
  br label %25

.preheader:                                       ; preds = %4
  %12 = getelementptr inbounds nuw i8, ptr %0, i64 28
  %13 = load i32, ptr %12, align 4, !tbaa !102
  %14 = icmp sgt i32 %13, 0
  br i1 %14, label %.lr.ph13, label %.loopexit

.lr.ph13:                                         ; preds = %.preheader
  %15 = getelementptr inbounds nuw i8, ptr %0, i64 56
  %16 = load ptr, ptr %15, align 8, !tbaa !40
  %17 = getelementptr inbounds nuw i8, ptr %0, i64 64
  %wide.trip.count24 = zext nneg i32 %13 to i64
  br label %49

.preheader1:                                      ; preds = %25, %.preheader3
  %.045.lcssa = phi i32 [ 0, %.preheader3 ], [ %spec.select, %25 ]
  %18 = getelementptr inbounds nuw i8, ptr %0, i64 28
  %19 = load i32, ptr %18, align 4, !tbaa !102
  %20 = icmp sgt i32 %19, 0
  br i1 %20, label %.lr.ph9, label %.loopexit

.lr.ph9:                                          ; preds = %.preheader1
  %21 = getelementptr inbounds nuw i8, ptr %0, i64 56
  %22 = load ptr, ptr %21, align 8, !tbaa !40
  %23 = getelementptr inbounds nuw i8, ptr %0, i64 64
  %24 = sext i32 %8 to i64
  %wide.trip.count19 = zext nneg i32 %19 to i64
  br label %30

25:                                               ; preds = %.lr.ph, %25
  %indvars.iv = phi i64 [ 0, %.lr.ph ], [ %indvars.iv.next, %25 ]
  %.0455 = phi i32 [ 0, %.lr.ph ], [ %spec.select, %25 ]
  %26 = getelementptr inbounds nuw %struct.MOVTrack, ptr %11, i64 %indvars.iv, i32 17
  %27 = load ptr, ptr %26, align 8, !tbaa !99
  %28 = getelementptr inbounds nuw i8, ptr %27, i64 12
  %29 = load i32, ptr %28, align 4, !tbaa !226
  %spec.select = tail call i32 @llvm.smax.i32(i32 %29, i32 %.0455)
  %indvars.iv.next = add nuw nsw i64 %indvars.iv, 1
  %exitcond.not = icmp eq i64 %indvars.iv.next, %wide.trip.count
  br i1 %exitcond.not, label %.preheader1, label %25, !llvm.loop !378

30:                                               ; preds = %.lr.ph9, %48
  %indvars.iv16 = phi i64 [ 0, %.lr.ph9 ], [ %indvars.iv.next17, %48 ]
  %.28 = phi i32 [ %.045.lcssa, %.lr.ph9 ], [ %.3, %48 ]
  %31 = getelementptr inbounds nuw %struct.MOVTrack, ptr %22, i64 %indvars.iv16, i32 1
  %32 = load i32, ptr %31, align 4, !tbaa !63
  %33 = icmp slt i32 %32, 1
  br i1 %33, label %34, label %37

34:                                               ; preds = %30
  %35 = load i32, ptr %23, align 8, !tbaa !75
  %36 = and i32 %35, 2
  %.not56 = icmp eq i32 %36, 0
  br i1 %.not56, label %48, label %37

37:                                               ; preds = %34, %30
  %.not57 = icmp slt i64 %indvars.iv16, %24
  br i1 %.not57, label %40, label %38

38:                                               ; preds = %37
  %39 = add nuw nsw i32 %.28, 1
  br label %45

40:                                               ; preds = %37
  %41 = getelementptr inbounds nuw %struct.MOVTrack, ptr %22, i64 %indvars.iv16, i32 17
  %42 = load ptr, ptr %41, align 8, !tbaa !99
  %43 = getelementptr inbounds nuw i8, ptr %42, i64 12
  %44 = load i32, ptr %43, align 4, !tbaa !226
  br label %45

45:                                               ; preds = %40, %38
  %.4 = phi i32 [ %39, %38 ], [ %.28, %40 ]
  %46 = phi i32 [ %39, %38 ], [ %44, %40 ]
  %47 = getelementptr inbounds nuw %struct.MOVTrack, ptr %22, i64 %indvars.iv16, i32 15
  store i32 %46, ptr %47, align 4, !tbaa !215
  br label %48

48:                                               ; preds = %34, %45
  %.3 = phi i32 [ %.4, %45 ], [ %.28, %34 ]
  %indvars.iv.next17 = add nuw nsw i64 %indvars.iv16, 1
  %exitcond20.not = icmp eq i64 %indvars.iv.next17, %wide.trip.count19
  br i1 %exitcond20.not, label %.loopexit, label %30, !llvm.loop !379

49:                                               ; preds = %.lr.ph13, %67
  %indvars.iv21 = phi i64 [ 0, %.lr.ph13 ], [ %indvars.iv.next22, %67 ]
  %.012 = phi i32 [ 0, %.lr.ph13 ], [ %.1, %67 ]
  %50 = getelementptr inbounds nuw %struct.MOVTrack, ptr %16, i64 %indvars.iv21, i32 1
  %51 = load i32, ptr %50, align 4, !tbaa !63
  %52 = icmp slt i32 %51, 1
  br i1 %52, label %53, label %56

53:                                               ; preds = %49
  %54 = load i32, ptr %17, align 8, !tbaa !75
  %55 = and i32 %54, 2
  %.not54 = icmp eq i32 %55, 0
  br i1 %.not54, label %67, label %56

56:                                               ; preds = %53, %49
  %57 = getelementptr inbounds nuw %struct.MOVTrack, ptr %16, i64 %indvars.iv21, i32 17
  %58 = load ptr, ptr %57, align 8, !tbaa !99
  %.not55 = icmp eq ptr %58, null
  br i1 %.not55, label %62, label %59

59:                                               ; preds = %56
  %60 = getelementptr inbounds nuw i8, ptr %58, i64 8
  %61 = load i32, ptr %60, align 8, !tbaa !229
  br label %64

62:                                               ; preds = %56
  %63 = trunc nuw nsw i64 %indvars.iv21 to i32
  br label %64

64:                                               ; preds = %59, %62
  %.sink = phi i32 [ %61, %59 ], [ %63, %62 ]
  %..0 = tail call i32 @llvm.smax.i32(i32 %.sink, i32 %.012)
  %65 = add nuw nsw i32 %..0, 1
  %66 = getelementptr inbounds nuw %struct.MOVTrack, ptr %16, i64 %indvars.iv21, i32 15
  store i32 %65, ptr %66, align 4, !tbaa !215
  br label %67

67:                                               ; preds = %53, %64
  %.1 = phi i32 [ %65, %64 ], [ %.012, %53 ]
  %indvars.iv.next22 = add nuw nsw i64 %indvars.iv21, 1
  %exitcond25.not = icmp eq i64 %indvars.iv.next22, %wide.trip.count24
  br i1 %exitcond25.not, label %.loopexit, label %49, !llvm.loop !380

.loopexit:                                        ; preds = %48, %67, %.preheader1, %.preheader
  store i32 1, ptr %2, align 4, !tbaa !376
  br label %68

68:                                               ; preds = %1, %.loopexit
  ret void
}